; Function Attrs: mustprogress nounwind uwtable
define dso_local void @_ZN4llvm16LTOCodeGenerator22setCodeGenDebugOptionsENS_8ArrayRefINS_9StringRefEEE(ptr noundef nonnull align 8 dereferenceable(1680) %0, ptr readonly %1, i64 %2) local_unnamed_addr #1 align 2 {
  %4 = alloca %"class.std::allocator", align 1
  %5 = alloca %"class.std::__cxx11::basic_string", align 8
  %6 = getelementptr inbounds %"class.llvm::StringRef", ptr %1, i64 %2
  %.not9 = icmp eq i64 %2, 0
  br i1 %.not9, label %._crit_edge, label %.lr.ph

.lr.ph:                                           ; preds = %3
  %7 = getelementptr inbounds nuw i8, ptr %0, i64 112
  %8 = getelementptr inbounds nuw i8, ptr %0, i64 120
  %9 = getelementptr inbounds nuw i8, ptr %0, i64 128
  br label %10

10:                                               ; preds = %.lr.ph, %_ZNSt6vectorINSt7__cxx1112basic_stringIcSt11char_traitsIcESaIcEEESaIS5_EE9push_backEOS5_.exit
  %.010 = phi ptr [ %1, %.lr.ph ], [ %19, %_ZNSt6vectorINSt7__cxx1112basic_stringIcSt11char_traitsIcESaIcEEESaIS5_EE9push_backEOS5_.exit ]
  %.sroa.0.0.copyload = load ptr, ptr %.010, align 8
  %.sroa.2.0..0.sroa_idx = getelementptr inbounds nuw i8, ptr %.010, i64 8
  %.sroa.2.0.copyload = load i64, ptr %.sroa.2.0..0.sroa_idx, align 8
  call void @llvm.lifetime.start.p0(i64 1, ptr nonnull %4)
  %.not.i = icmp eq ptr %.sroa.0.0.copyload, null
  br i1 %.not.i, label %11, label %12

11:                                               ; preds = %10
  call void @_ZNSt7__cxx1112basic_stringIcSt11char_traitsIcESaIcEEC1Ev(ptr noundef nonnull align 8 dereferenceable(32) %5) #23
  br label %_ZNK4llvm9StringRef3strB5cxx11Ev.exit

12:                                               ; preds = %10
  call void @_ZNSaIcEC1Ev(ptr noundef nonnull align 1 dereferenceable(1) %4) #23, !noalias !91
  call void @_ZNSt7__cxx1112basic_stringIcSt11char_traitsIcESaIcEEC1EPKcmRKS3_(ptr noundef nonnull align 8 dereferenceable(32) %5, ptr noundef nonnull %.sroa.0.0.copyload, i64 noundef %.sroa.2.0.copyload, ptr noundef nonnull align 1 dereferenceable(1) %4) #23
  call void @_ZNSaIcED1Ev(ptr noundef nonnull align 1 dereferenceable(1) %4) #23
  br label %_ZNK4llvm9StringRef3strB5cxx11Ev.exit

_ZNK4llvm9StringRef3strB5cxx11Ev.exit:            ; preds = %11, %12
  call void @llvm.lifetime.end.p0(i64 1, ptr nonnull %4)
  %13 = load ptr, ptr %8, align 8
  %14 = load ptr, ptr %9, align 8
  %.not.i.i = icmp eq ptr %13, %14
  br i1 %.not.i.i, label %18, label %15

15:                                               ; preds = %_ZNK4llvm9StringRef3strB5cxx11Ev.exit
  call void @_ZNSt7__cxx1112basic_stringIcSt11char_traitsIcESaIcEEC1EOS4_(ptr noundef nonnull align 8 dereferenceable(32) %13, ptr noundef nonnull align 8 dereferenceable(32) %5) #23
  %16 = load ptr, ptr %8, align 8
  %17 = getelementptr inbounds nuw i8, ptr %16, i64 32
  store ptr %17, ptr %8, align 8
  br label %_ZNSt6vectorINSt7__cxx1112basic_stringIcSt11char_traitsIcESaIcEEESaIS5_EE9push_backEOS5_.exit

18:                                               ; preds = %_ZNK4llvm9StringRef3strB5cxx11Ev.exit
  call void @_ZNSt6vectorINSt7__cxx1112basic_stringIcSt11char_traitsIcESaIcEEESaIS5_EE17_M_realloc_insertIJS5_EEEvN9__gnu_cxx17__normal_iteratorIPS5_S7_EEDpOT_(ptr noundef nonnull align 8 dereferenceable(24) %7, ptr %13, ptr noundef nonnull align 8 dereferenceable(32) %5)
  br label %_ZNSt6vectorINSt7__cxx1112basic_stringIcSt11char_traitsIcESaIcEEESaIS5_EE9push_backEOS5_.exit

_ZNSt6vectorINSt7__cxx1112basic_stringIcSt11char_traitsIcESaIcEEESaIS5_EE9push_backEOS5_.exit: ; preds = %15, %18
  call void @_ZNSt7__cxx1112basic_stringIcSt11char_traitsIcESaIcEED1Ev(ptr noundef nonnull align 8 dereferenceable(32) %5) #23
  %19 = getelementptr inbounds nuw i8, ptr %.010, i64 16
  %.not = icmp eq ptr %19, %6
  br i1 %.not, label %._crit_edge, label %10

._crit_edge:                                      ; preds = %_ZNSt6vectorINSt7__cxx1112basic_stringIcSt11char_traitsIcESaIcEEESaIS5_EE9push_backEOS5_.exit, %3
  ret void
}